target datalayout = "e-m:e-p270:32:32-p271:32:32-p272:64:64-i64:64-i128:128-f80:128-n8:16:32:64-S128"
target triple = "x86_64-pc-linux-gnu"

%struct.__jmp_buf_tag = type { [8 x i64], i32, %struct.__sigset_t }
%struct.__sigset_t = type { [16 x i64] }
%struct.StringInfoData = type { ptr, i32, i32, i32 }

@.str.2 = private unnamed_addr constant [9 x i8] c"pqcomm.c\00", align 1
@PqRecvLength = internal global i32 0, align 4
@PqRecvPointer = internal global i32 0, align 4
@PqCommReadingMsg = internal global i8 0, align 1
@PqRecvBuffer = internal global [8192 x i8] zeroinitializer, align 16
@.str.32 = private unnamed_addr constant [42 x i8] c"unexpected EOF within message length word\00", align 1
@__func__.pq_getmessage = private unnamed_addr constant [14 x i8] c"pq_getmessage\00", align 1
@.str.33 = private unnamed_addr constant [23 x i8] c"invalid message length\00", align 1
@PG_exception_stack = external global ptr, align 8
@error_context_stack = external global ptr, align 8
@.str.34 = private unnamed_addr constant [31 x i8] c"incomplete message from client\00", align 1

; Function Attrs: nounwind uwtable
define dso_local i32 @pq_getbytes(ptr noundef %0, i64 noundef %1) #0 {
  %3 = alloca i32, align 4
  %4 = alloca ptr, align 8
  %5 = alloca i64, align 8
  %6 = alloca i64, align 8
  %7 = alloca i32, align 4
  store ptr %0, ptr %4, align 8
  store i64 %1, ptr %5, align 8
  call void @llvm.lifetime.start.p0(i64 8, ptr %6) #14
  br label %8

8:                                                ; preds = %31, %2
  %9 = load i64, ptr %5, align 8
  %10 = icmp ugt i64 %9, 0
  br i1 %10, label %11, label %48

11:                                               ; preds = %8
  br label %12

12:                                               ; preds = %20, %11
  %13 = load i32, ptr @PqRecvPointer, align 4
  %14 = load i32, ptr @PqRecvLength, align 4
  %15 = icmp sge i32 %13, %14
  br i1 %15, label %16, label %21

16:                                               ; preds = %12
  %17 = call i32 @pq_recvbuf()
  %18 = icmp ne i32 %17, 0
  br i1 %18, label %19, label %20

19:                                               ; preds = %16
  store i32 -1, ptr %3, align 4
  store i32 1, ptr %7, align 4
  br label %49

20:                                               ; preds = %16
  br label %12, !llvm.loop !13

21:                                               ; preds = %12
  %22 = load i32, ptr @PqRecvLength, align 4
  %23 = load i32, ptr @PqRecvPointer, align 4
  %24 = sub i32 %22, %23
  %25 = sext i32 %24 to i64
  store i64 %25, ptr %6, align 8
  %26 = load i64, ptr %6, align 8
  %27 = load i64, ptr %5, align 8
  %28 = icmp ugt i64 %26, %27
  br i1 %28, label %29, label %31

29:                                               ; preds = %21
  %30 = load i64, ptr %5, align 8
  store i64 %30, ptr %6, align 8
  br label %31

31:                                               ; preds = %29, %21
  %32 = load ptr, ptr %4, align 8
  %33 = load i32, ptr @PqRecvPointer, align 4
  %34 = sext i32 %33 to i64
  %35 = getelementptr inbounds i8, ptr @PqRecvBuffer, i64 %34
  %36 = load i64, ptr %6, align 8
  call void @llvm.memcpy.p0.p0.i64(ptr align 1 %32, ptr align 1 %35, i64 %36, i1 false)
  %37 = load i64, ptr %6, align 8
  %38 = load i32, ptr @PqRecvPointer, align 4
  %39 = sext i32 %38 to i64
  %40 = add i64 %39, %37
  %41 = trunc i64 %40 to i32
  store i32 %41, ptr @PqRecvPointer, align 4
  %42 = load i64, ptr %6, align 8
  %43 = load ptr, ptr %4, align 8
  %44 = getelementptr inbounds nuw i8, ptr %43, i64 %42
  store ptr %44, ptr %4, align 8
  %45 = load i64, ptr %6, align 8
  %46 = load i64, ptr %5, align 8
  %47 = sub i64 %46, %45
  store i64 %47, ptr %5, align 8
  br label %8, !llvm.loop !14

48:                                               ; preds = %8
  store i32 0, ptr %3, align 4
  store i32 1, ptr %7, align 4
  br label %49

49:                                               ; preds = %48, %19
  call void @llvm.lifetime.end.p0(i64 8, ptr %6) #14
  %50 = load i32, ptr %3, align 4
  ret i32 %50
}

; Function Attrs: nounwind uwtable
define dso_local i32 @pq_getmessage(ptr noundef %0, i32 noundef %1) #0 {
  %3 = alloca i32, align 4
  %4 = alloca ptr, align 8
  %5 = alloca i32, align 4
  %6 = alloca i32, align 4
  %7 = alloca i32, align 4
  %8 = alloca ptr, align 8
  %9 = alloca ptr, align 8
  %10 = alloca [1 x %struct.__jmp_buf_tag], align 16
  %11 = alloca i8, align 1
  store ptr %0, ptr %4, align 8
  store i32 %1, ptr %5, align 4
  call void @llvm.lifetime.start.p0(i64 4, ptr %6) #14
  %12 = load ptr, ptr %4, align 8
  call void @resetStringInfo(ptr noundef %12)
  %13 = call i32 @pq_getbytes(ptr noundef %6, i64 noundef 4)
  %14 = icmp eq i32 %13, -1
  br i1 %14, label %15, label %27

15:                                               ; preds = %2
  br label %16

16:                                               ; preds = %15
  br i1 false, label %17, label %19

17:                                               ; preds = %16
  %18 = call zeroext i1 @errstart_cold(i32 noundef 16, ptr noundef null) #15
  br i1 %18, label %21, label %24

19:                                               ; preds = %16
  %20 = call zeroext i1 @errstart(i32 noundef 16, ptr noundef null)
  br i1 %20, label %21, label %24

21:                                               ; preds = %19, %17
  %22 = call i32 @errcode(i32 noundef 16908800)
  %23 = call i32 (ptr, ...) @errmsg(ptr noundef @.str.32)
  call void @errfinish(ptr noundef @.str.2, i32 noundef 1216, ptr noundef @__func__.pq_getmessage)
  br label %24

24:                                               ; preds = %21, %19, %17
  br label %25

25:                                               ; preds = %24
  br label %26

26:                                               ; preds = %25
  store i32 -1, ptr %3, align 4
  store i32 1, ptr %7, align 4
  br label %122

27:                                               ; preds = %2
  %28 = load i32, ptr %6, align 4
  %29 = call i32 @llvm.bswap.i32(i32 %28)
  store i32 %29, ptr %6, align 4
  %30 = load i32, ptr %6, align 4
  %31 = icmp slt i32 %30, 4
  br i1 %31, label %36, label %32

32:                                               ; preds = %27
  %33 = load i32, ptr %6, align 4
  %34 = load i32, ptr %5, align 4
  %35 = icmp sgt i32 %33, %34
  br i1 %35, label %36, label %48

36:                                               ; preds = %32, %27
  br label %37

37:                                               ; preds = %36
  br i1 false, label %38, label %40

38:                                               ; preds = %37
  %39 = call zeroext i1 @errstart_cold(i32 noundef 16, ptr noundef null) #15
  br i1 %39, label %42, label %45

40:                                               ; preds = %37
  %41 = call zeroext i1 @errstart(i32 noundef 16, ptr noundef null)
  br i1 %41, label %42, label %45

42:                                               ; preds = %40, %38
  %43 = call i32 @errcode(i32 noundef 16908800)
  %44 = call i32 (ptr, ...) @errmsg(ptr noundef @.str.33)
  call void @errfinish(ptr noundef @.str.2, i32 noundef 1226, ptr noundef @__func__.pq_getmessage)
  br label %45

45:                                               ; preds = %42, %40, %38
  br label %46

46:                                               ; preds = %45
  br label %47

47:                                               ; preds = %46
  store i32 -1, ptr %3, align 4
  store i32 1, ptr %7, align 4
  br label %122

48:                                               ; preds = %32
  %49 = load i32, ptr %6, align 4
  %50 = sub i32 %49, 4
  store i32 %50, ptr %6, align 4
  %51 = load i32, ptr %6, align 4
  %52 = icmp sgt i32 %51, 0
  br i1 %52, label %53, label %121

53:                                               ; preds = %48
  br label %54

54:                                               ; preds = %53
  call void @llvm.lifetime.start.p0(i64 8, ptr %8) #14
  %55 = load ptr, ptr @PG_exception_stack, align 8
  store ptr %55, ptr %8, align 8
  call void @llvm.lifetime.start.p0(i64 8, ptr %9) #14
  %56 = load ptr, ptr @error_context_stack, align 8
  store ptr %56, ptr %9, align 8
  call void @llvm.lifetime.start.p0(i64 200, ptr %10) #14
  call void @llvm.lifetime.start.p0(i64 1, ptr %11) #14
  store i8 0, ptr %11, align 1
  %57 = getelementptr inbounds [1 x %struct.__jmp_buf_tag], ptr %10, i64 0, i64 0
  %58 = call i32 @__sigsetjmp(ptr noundef %57, i32 noundef 0) #18
  %59 = icmp eq i32 %58, 0
  br i1 %59, label %60, label %63

60:                                               ; preds = %54
  store ptr %10, ptr @PG_exception_stack, align 8
  %61 = load ptr, ptr %4, align 8
  %62 = load i32, ptr %6, align 4
  call void @enlargeStringInfo(ptr noundef %61, i32 noundef %62)
  br label %83

63:                                               ; preds = %54
  %64 = load ptr, ptr %8, align 8
  store ptr %64, ptr @PG_exception_stack, align 8
  %65 = load ptr, ptr %9, align 8
  store ptr %65, ptr @error_context_stack, align 8
  %66 = load i32, ptr %6, align 4
  %67 = sext i32 %66 to i64
  %68 = call i32 @pq_discardbytes(i64 noundef %67)
  %69 = icmp eq i32 %68, -1
  br i1 %69, label %70, label %82

70:                                               ; preds = %63
  br label %71

71:                                               ; preds = %70
  br i1 false, label %72, label %74

72:                                               ; preds = %71
  %73 = call zeroext i1 @errstart_cold(i32 noundef 16, ptr noundef null) #15
  br i1 %73, label %76, label %79

74:                                               ; preds = %71
  %75 = call zeroext i1 @errstart(i32 noundef 16, ptr noundef null)
  br i1 %75, label %76, label %79

76:                                               ; preds = %74, %72
  %77 = call i32 @errcode(i32 noundef 16908800)
  %78 = call i32 (ptr, ...) @errmsg(ptr noundef @.str.34)
  call void @errfinish(ptr noundef @.str.2, i32 noundef 1248, ptr noundef @__func__.pq_getmessage)
  br label %79

79:                                               ; preds = %76, %74, %72
  br label %80

80:                                               ; preds = %79
  br label %81

81:                                               ; preds = %80
  br label %82

82:                                               ; preds = %81, %63
  store i8 0, ptr @PqCommReadingMsg, align 1
  call void @pg_re_throw() #19
  unreachable

83:                                               ; preds = %60
  %84 = load i8, ptr %11, align 1, !range !11, !noundef !12
  %85 = trunc i8 %84 to i1
  br i1 %85, label %86, label %87

86:                                               ; preds = %83
  call void @pg_re_throw() #19
  unreachable

87:                                               ; preds = %83
  %88 = load ptr, ptr %8, align 8
  store ptr %88, ptr @PG_exception_stack, align 8
  %89 = load ptr, ptr %9, align 8
  store ptr %89, ptr @error_context_stack, align 8
  call void @llvm.lifetime.end.p0(i64 1, ptr %11) #14
  call void @llvm.lifetime.end.p0(i64 200, ptr %10) #14
  call void @llvm.lifetime.end.p0(i64 8, ptr %9) #14
  call void @llvm.lifetime.end.p0(i64 8, ptr %8) #14
  br label %90

90:                                               ; preds = %87
  br label %91

91:                                               ; preds = %90
  %92 = load ptr, ptr %4, align 8
  %93 = getelementptr inbounds nuw %struct.StringInfoData, ptr %92, i32 0, i32 0
  %94 = load ptr, ptr %93, align 8
  %95 = load i32, ptr %6, align 4
  %96 = sext i32 %95 to i64
  %97 = call i32 @pq_getbytes(ptr noundef %94, i64 noundef %96)
  %98 = icmp eq i32 %97, -1
  br i1 %98, label %99, label %111

99:                                               ; preds = %91
  br label %100

100:                                              ; preds = %99
  br i1 false, label %101, label %103

101:                                              ; preds = %100
  %102 = call zeroext i1 @errstart_cold(i32 noundef 16, ptr noundef null) #15
  br i1 %102, label %105, label %108

103:                                              ; preds = %100
  %104 = call zeroext i1 @errstart(i32 noundef 16, ptr noundef null)
  br i1 %104, label %105, label %108

105:                                              ; preds = %103, %101
  %106 = call i32 @errcode(i32 noundef 16908800)
  %107 = call i32 (ptr, ...) @errmsg(ptr noundef @.str.34)
  call void @errfinish(ptr noundef @.str.2, i32 noundef 1261, ptr noundef @__func__.pq_getmessage)
  br label %108

108:                                              ; preds = %105, %103, %101
  br label %109

109:                                              ; preds = %108
  br label %110

110:                                              ; preds = %109
  store i32 -1, ptr %3, align 4
  store i32 1, ptr %7, align 4
  br label %122

111:                                              ; preds = %91
  %112 = load i32, ptr %6, align 4
  %113 = load ptr, ptr %4, align 8
  %114 = getelementptr inbounds nuw %struct.StringInfoData, ptr %113, i32 0, i32 1
  store i32 %112, ptr %114, align 8
  %115 = load ptr, ptr %4, align 8
  %116 = getelementptr inbounds nuw %struct.StringInfoData, ptr %115, i32 0, i32 0
  %117 = load ptr, ptr %116, align 8
  %118 = load i32, ptr %6, align 4
  %119 = sext i32 %118 to i64
  %120 = getelementptr inbounds i8, ptr %117, i64 %119
  store i8 0, ptr %120, align 1
  br label %121

121:                                              ; preds = %111, %48
  store i8 0, ptr @PqCommReadingMsg, align 1
  store i32 0, ptr %3, align 4
  store i32 1, ptr %7, align 4
  br label %122

122:                                              ; preds = %121, %110, %47, %26
  call void @llvm.lifetime.end.p0(i64 4, ptr %6) #14
  %123 = load i32, ptr %3, align 4
  ret i32 %123
}