; Function Attrs: nounwind uwtable
define dso_local range(i32 -1, 1) i32 @pq_getmessage(ptr noundef %0, i32 noundef %1) local_unnamed_addr #0 {
  %3 = alloca i32, align 4
  %4 = alloca [1 x %struct.__jmp_buf_tag], align 16
  call void @llvm.lifetime.start.p0(i64 4, ptr nonnull %3) #21
  call void @resetStringInfo(ptr noundef %0) #21
  br label %.preheader.i

.preheader.i:                                     ; preds = %10, %2
  %.01125.i = phi i64 [ %18, %10 ], [ 4, %2 ]
  %.01224.i = phi ptr [ %17, %10 ], [ %3, %2 ]
  br label %5

5:                                                ; preds = %8, %.preheader.i
  %6 = load i32, ptr @PqRecvPointer, align 4
  %7 = load i32, ptr @PqRecvLength, align 4
  %.not17.i = icmp slt i32 %6, %7
  br i1 %.not17.i, label %10, label %8

8:                                                ; preds = %5
  %9 = call fastcc i32 @pq_recvbuf()
  %.not18.i = icmp eq i32 %9, 0
  br i1 %.not18.i, label %5, label %19, !llvm.loop !8

10:                                               ; preds = %5
  %11 = sub i32 %7, %6
  %12 = sext i32 %11 to i64
  %spec.select.i = call i64 @llvm.umin.i64(i64 %.01125.i, i64 %12)
  %13 = sext i32 %6 to i64
  %14 = getelementptr inbounds i8, ptr @PqRecvBuffer, i64 %13
  call void @llvm.memcpy.p0.p0.i64(ptr align 1 %.01224.i, ptr nonnull align 1 %14, i64 %spec.select.i, i1 false)
  %15 = trunc i64 %spec.select.i to i32
  %16 = add i32 %6, %15
  store i32 %16, ptr @PqRecvPointer, align 4
  %17 = getelementptr inbounds nuw i8, ptr %.01224.i, i64 %spec.select.i
  %18 = sub i64 %.01125.i, %spec.select.i
  %.not.i = icmp eq i64 %18, 0
  br i1 %.not.i, label %pq_getbytes.exit, label %.preheader.i, !llvm.loop !9

19:                                               ; preds = %8
  %20 = call zeroext i1 @errstart(i32 noundef 16, ptr noundef null) #21
  br i1 %20, label %21, label %75

21:                                               ; preds = %19
  %22 = call i32 @errcode(i32 noundef 16908800) #21
  %23 = call i32 (ptr, ...) @errmsg(ptr noundef nonnull @.str.32) #21
  call void @errfinish(ptr noundef nonnull @.str.2, i32 noundef 1216, ptr noundef nonnull @__func__.pq_getmessage) #21
  br label %75

pq_getbytes.exit:                                 ; preds = %10
  %24 = load i32, ptr %3, align 4
  %25 = call i32 @llvm.bswap.i32(i32 %24)
  %26 = icmp slt i32 %25, 4
  %27 = icmp sgt i32 %25, %1
  %or.cond = or i1 %26, %27
  br i1 %or.cond, label %28, label %33

28:                                               ; preds = %pq_getbytes.exit
  %29 = call zeroext i1 @errstart(i32 noundef 16, ptr noundef null) #21
  br i1 %29, label %30, label %75

30:                                               ; preds = %28
  %31 = call i32 @errcode(i32 noundef 16908800) #21
  %32 = call i32 (ptr, ...) @errmsg(ptr noundef nonnull @.str.33) #21
  call void @errfinish(ptr noundef nonnull @.str.2, i32 noundef 1226, ptr noundef nonnull @__func__.pq_getmessage) #21
  br label %75

33:                                               ; preds = %pq_getbytes.exit
  %34 = add nsw i32 %25, -4
  %.not = icmp eq i32 %24, 67108864
  br i1 %.not, label %74, label %35

35:                                               ; preds = %33
  %36 = load ptr, ptr @PG_exception_stack, align 8
  %37 = load ptr, ptr @error_context_stack, align 8
  call void @llvm.lifetime.start.p0(i64 200, ptr nonnull %4) #21
  %38 = call i32 @__sigsetjmp(ptr noundef nonnull %4, i32 noundef 0) #25
  %39 = icmp eq i32 %38, 0
  br i1 %39, label %40, label %57

40:                                               ; preds = %35
  store ptr %4, ptr @PG_exception_stack, align 8
  call void @enlargeStringInfo(ptr noundef %0, i32 noundef %34) #21
  store ptr %36, ptr @PG_exception_stack, align 8
  store ptr %37, ptr @error_context_stack, align 8
  call void @llvm.lifetime.end.p0(i64 200, ptr nonnull %4) #21
  %41 = load ptr, ptr %0, align 8
  %42 = zext nneg i32 %34 to i64
  %.not23.i = icmp eq i32 %34, 0
  br i1 %.not23.i, label %.loopexit, label %.preheader.i12

.preheader.i12:                                   ; preds = %40, %48
  %.01125.i13 = phi i64 [ %56, %48 ], [ %42, %40 ]
  %.01224.i14 = phi ptr [ %55, %48 ], [ %41, %40 ]
  br label %43

43:                                               ; preds = %46, %.preheader.i12
  %44 = load i32, ptr @PqRecvPointer, align 4
  %45 = load i32, ptr @PqRecvLength, align 4
  %.not17.i15 = icmp slt i32 %44, %45
  br i1 %.not17.i15, label %48, label %46

46:                                               ; preds = %43
  %47 = call fastcc i32 @pq_recvbuf()
  %.not18.i16 = icmp eq i32 %47, 0
  br i1 %.not18.i16, label %43, label %pq_getbytes.exit20, !llvm.loop !8

48:                                               ; preds = %43
  %49 = sub i32 %45, %44
  %50 = sext i32 %49 to i64
  %spec.select.i18 = call i64 @llvm.umin.i64(i64 %.01125.i13, i64 %50)
  %51 = sext i32 %44 to i64
  %52 = getelementptr inbounds i8, ptr @PqRecvBuffer, i64 %51
  call void @llvm.memcpy.p0.p0.i64(ptr align 1 %.01224.i14, ptr nonnull align 1 %52, i64 %spec.select.i18, i1 false)
  %53 = trunc i64 %spec.select.i18 to i32
  %54 = add i32 %44, %53
  store i32 %54, ptr @PqRecvPointer, align 4
  %55 = getelementptr inbounds nuw i8, ptr %.01224.i14, i64 %spec.select.i18
  %56 = sub i64 %.01125.i13, %spec.select.i18
  %.not.i19 = icmp eq i64 %56, 0
  br i1 %.not.i19, label %.loopexit.loopexit, label %.preheader.i12, !llvm.loop !9

57:                                               ; preds = %35
  store ptr %36, ptr @PG_exception_stack, align 8
  store ptr %37, ptr @error_context_stack, align 8
  %58 = zext nneg i32 %34 to i64
  %59 = call fastcc i32 @pq_discardbytes(i64 noundef %58)
  %60 = icmp eq i32 %59, -1
  br i1 %60, label %61, label %66

61:                                               ; preds = %57
  %62 = call zeroext i1 @errstart(i32 noundef 16, ptr noundef null) #21
  br i1 %62, label %63, label %66

63:                                               ; preds = %61
  %64 = call i32 @errcode(i32 noundef 16908800) #21
  %65 = call i32 (ptr, ...) @errmsg(ptr noundef nonnull @.str.34) #21
  call void @errfinish(ptr noundef nonnull @.str.2, i32 noundef 1248, ptr noundef nonnull @__func__.pq_getmessage) #21
  br label %66

66:                                               ; preds = %61, %63, %57
  store i1 false, ptr @PqCommReadingMsg, align 1
  call void @pg_re_throw() #26
  unreachable

pq_getbytes.exit20:                               ; preds = %46
  %67 = call zeroext i1 @errstart(i32 noundef 16, ptr noundef null) #21
  br i1 %67, label %68, label %75

68:                                               ; preds = %pq_getbytes.exit20
  %69 = call i32 @errcode(i32 noundef 16908800) #21
  %70 = call i32 (ptr, ...) @errmsg(ptr noundef nonnull @.str.34) #21
  call void @errfinish(ptr noundef nonnull @.str.2, i32 noundef 1261, ptr noundef nonnull @__func__.pq_getmessage) #21
  br label %75

.loopexit.loopexit:                               ; preds = %48
  %.pre = load ptr, ptr %0, align 8
  br label %.loopexit

.loopexit:                                        ; preds = %.loopexit.loopexit, %40
  %71 = phi ptr [ %.pre, %.loopexit.loopexit ], [ %41, %40 ]
  %72 = getelementptr inbounds nuw i8, ptr %0, i64 8
  store i32 %34, ptr %72, align 8
  %73 = getelementptr inbounds nuw i8, ptr %71, i64 %42
  store i8 0, ptr %73, align 1
  br label %74

74:                                               ; preds = %.loopexit, %33
  store i1 false, ptr @PqCommReadingMsg, align 1
  br label %75

75:                                               ; preds = %pq_getbytes.exit20, %68, %28, %30, %19, %21, %74
  %.0 = phi i32 [ 0, %74 ], [ -1, %21 ], [ -1, %19 ], [ -1, %30 ], [ -1, %28 ], [ -1, %68 ], [ -1, %pq_getbytes.exit20 ]
  call void @llvm.lifetime.end.p0(i64 4, ptr nonnull %3) #21
  ret i32 %.0
}